target datalayout = "e-m:e-p270:32:32-p271:32:32-p272:64:64-i64:64-i128:128-f80:128-n8:16:32:64-S128"
target triple = "x86_64-pc-linux-gnu"

%"class.icu_77::Package" = type <{ [64 x i8], [64 x i8], ptr, [1024 x i8], i32, i32, i8, i8, i8, i8, i32, i32, [4 x i8], ptr, i32, i32, [100000 x i8], [100000 x i8], i32, [4 x i8], ptr, ptr, i32, i32, i32, i8, [3 x i8] }>
%"struct.icu_77::Item" = type { ptr, ptr, i32, i8, i8 }

; Function Attrs: mustprogress uwtable
define void @_ZN6icu_777Package10removeItemEi(ptr noundef nonnull align 8 dereferenceable(201237) %0, i32 noundef %1) #0 align 2 {
  %3 = alloca ptr, align 8
  %4 = alloca i32, align 4
  store ptr %0, ptr %3, align 8, !tbaa !26
  store i32 %1, ptr %4, align 4, !tbaa !8
  %5 = load ptr, ptr %3, align 8
  %6 = load i32, ptr %4, align 4, !tbaa !8
  %7 = icmp sge i32 %6, 0
  br i1 %7, label %8, label %63

8:                                                ; preds = %2
  %9 = getelementptr inbounds nuw %"class.icu_77::Package", ptr %5, i32 0, i32 13
  %10 = load ptr, ptr %9, align 8, !tbaa !39
  %11 = load i32, ptr %4, align 4, !tbaa !8
  %12 = sext i32 %11 to i64
  %13 = getelementptr inbounds %"struct.icu_77::Item", ptr %10, i64 %12
  %14 = getelementptr inbounds nuw %"struct.icu_77::Item", ptr %13, i32 0, i32 3
  %15 = load i8, ptr %14, align 4, !tbaa !49
  %16 = icmp ne i8 %15, 0
  br i1 %16, label %17, label %25

17:                                               ; preds = %8
  %18 = getelementptr inbounds nuw %"class.icu_77::Package", ptr %5, i32 0, i32 13
  %19 = load ptr, ptr %18, align 8, !tbaa !39
  %20 = load i32, ptr %4, align 4, !tbaa !8
  %21 = sext i32 %20 to i64
  %22 = getelementptr inbounds %"struct.icu_77::Item", ptr %19, i64 %21
  %23 = getelementptr inbounds nuw %"struct.icu_77::Item", ptr %22, i32 0, i32 1
  %24 = load ptr, ptr %23, align 8, !tbaa !51
  call void @uprv_free_77(ptr noundef %24)
  br label %25

25:                                               ; preds = %17, %8
  %26 = load i32, ptr %4, align 4, !tbaa !8
  %27 = add nsw i32 %26, 1
  %28 = getelementptr inbounds nuw %"class.icu_77::Package", ptr %5, i32 0, i32 10
  %29 = load i32, ptr %28, align 4, !tbaa !37
  %30 = icmp slt i32 %27, %29
  br i1 %30, label %31, label %50

31:                                               ; preds = %25
  %32 = getelementptr inbounds nuw %"class.icu_77::Package", ptr %5, i32 0, i32 13
  %33 = load ptr, ptr %32, align 8, !tbaa !39
  %34 = load i32, ptr %4, align 4, !tbaa !8
  %35 = sext i32 %34 to i64
  %36 = getelementptr inbounds %"struct.icu_77::Item", ptr %33, i64 %35
  %37 = getelementptr inbounds nuw %"class.icu_77::Package", ptr %5, i32 0, i32 13
  %38 = load ptr, ptr %37, align 8, !tbaa !39
  %39 = load i32, ptr %4, align 4, !tbaa !8
  %40 = sext i32 %39 to i64
  %41 = getelementptr inbounds %"struct.icu_77::Item", ptr %38, i64 %40
  %42 = getelementptr inbounds %"struct.icu_77::Item", ptr %41, i64 1
  %43 = getelementptr inbounds nuw %"class.icu_77::Package", ptr %5, i32 0, i32 10
  %44 = load i32, ptr %43, align 4, !tbaa !37
  %45 = load i32, ptr %4, align 4, !tbaa !8
  %46 = add nsw i32 %45, 1
  %47 = sub nsw i32 %44, %46
  %48 = sext i32 %47 to i64
  %49 = mul i64 %48, 24
  call void @llvm.memmove.p0.p0.i64(ptr align 8 %36, ptr align 8 %42, i64 %49, i1 false)
  br label %50

50:                                               ; preds = %31, %25
  %51 = getelementptr inbounds nuw %"class.icu_77::Package", ptr %5, i32 0, i32 10
  %52 = load i32, ptr %51, align 4, !tbaa !37
  %53 = add nsw i32 %52, -1
  store i32 %53, ptr %51, align 4, !tbaa !37
  %54 = load i32, ptr %4, align 4, !tbaa !8
  %55 = getelementptr inbounds nuw %"class.icu_77::Package", ptr %5, i32 0, i32 24
  %56 = load i32, ptr %55, align 8, !tbaa !47
  %57 = icmp sle i32 %54, %56
  br i1 %57, label %58, label %62

58:                                               ; preds = %50
  %59 = getelementptr inbounds nuw %"class.icu_77::Package", ptr %5, i32 0, i32 24
  %60 = load i32, ptr %59, align 8, !tbaa !47
  %61 = add nsw i32 %60, -1
  store i32 %61, ptr %59, align 8, !tbaa !47
  br label %62

62:                                               ; preds = %58, %50
  br label %63

63:                                               ; preds = %62, %2
  ret void
}