; Function Attrs: mustprogress uwtable
define void @_ZN6icu_777Package10removeItemEi(ptr noundef nonnull align 8 captures(none) dereferenceable(201237) %0, i32 noundef %1) local_unnamed_addr #13 align 2 {
  %3 = icmp sgt i32 %1, -1
  br i1 %3, label %4, label %33

4:                                                ; preds = %2
  %5 = getelementptr inbounds nuw i8, ptr %0, i64 1184
  %6 = load ptr, ptr %5, align 8, !tbaa !30
  %7 = zext nneg i32 %1 to i64
  %8 = getelementptr inbounds nuw %"struct.icu_77::Item", ptr %6, i64 %7
  %9 = getelementptr inbounds nuw i8, ptr %8, i64 20
  %10 = load i8, ptr %9, align 4, !tbaa !31
  %.not = icmp eq i8 %10, 0
  br i1 %.not, label %14, label %11

11:                                               ; preds = %4
  %12 = getelementptr inbounds nuw i8, ptr %8, i64 8
  %13 = load ptr, ptr %12, align 8, !tbaa !33
  tail call void @uprv_free_77(ptr noundef %13)
  br label %14

14:                                               ; preds = %11, %4
  %15 = add nuw nsw i32 %1, 1
  %16 = getelementptr inbounds nuw i8, ptr %0, i64 1172
  %17 = load i32, ptr %16, align 4, !tbaa !29
  %18 = icmp slt i32 %15, %17
  br i1 %18, label %19, label %26

19:                                               ; preds = %14
  %20 = load ptr, ptr %5, align 8, !tbaa !30
  %21 = getelementptr inbounds nuw %"struct.icu_77::Item", ptr %20, i64 %7
  %22 = getelementptr inbounds nuw i8, ptr %21, i64 24
  %23 = sub nsw i32 %17, %15
  %24 = sext i32 %23 to i64
  %25 = mul nsw i64 %24, 24
  tail call void @llvm.memmove.p0.p0.i64(ptr align 8 %21, ptr nonnull align 8 %22, i64 %25, i1 false)
  %.pre = load i32, ptr %16, align 4, !tbaa !29
  br label %26

26:                                               ; preds = %19, %14
  %27 = phi i32 [ %.pre, %19 ], [ %17, %14 ]
  %28 = add nsw i32 %27, -1
  store i32 %28, ptr %16, align 4, !tbaa !29
  %29 = getelementptr inbounds nuw i8, ptr %0, i64 201232
  %30 = load i32, ptr %29, align 8, !tbaa !27
  %.not11 = icmp sgt i32 %1, %30
  br i1 %.not11, label %33, label %31

31:                                               ; preds = %26
  %32 = add nsw i32 %30, -1
  store i32 %32, ptr %29, align 8, !tbaa !27
  br label %33

33:                                               ; preds = %26, %31, %2
  ret void
}